target datalayout = "e-m:e-p270:32:32-p271:32:32-p272:64:64-i64:64-i128:128-f80:128-n8:16:32:64-S128"
target triple = "x86_64-pc-linux-gnu"

%struct.AVProbeData = type { ptr, ptr, i32, ptr }

; Function Attrs: nounwind uwtable
define internal i32 @probe(ptr noundef %0) #0 {
  %2 = alloca i32, align 4
  %3 = alloca ptr, align 8
  store ptr %0, ptr %3, align 8, !tbaa !4
  %4 = load ptr, ptr %3, align 8, !tbaa !4
  %5 = getelementptr inbounds nuw %struct.AVProbeData, ptr %4, i32 0, i32 1
  %6 = load ptr, ptr %5, align 8, !tbaa !9
  %7 = load i32, ptr %6, align 1, !tbaa !13
  %8 = icmp eq i32 %7, 1297371986
  br i1 %8, label %9, label %26

9:                                                ; preds = %1
  %10 = load ptr, ptr %3, align 8, !tbaa !4
  %11 = getelementptr inbounds nuw %struct.AVProbeData, ptr %10, i32 0, i32 1
  %12 = load ptr, ptr %11, align 8, !tbaa !9
  %13 = getelementptr inbounds i8, ptr %12, i64 4
  %14 = load i16, ptr %13, align 1, !tbaa !13
  %15 = zext i16 %14 to i32
  %16 = icmp eq i32 %15, 65534
  br i1 %16, label %25, label %17

17:                                               ; preds = %9
  %18 = load ptr, ptr %3, align 8, !tbaa !4
  %19 = getelementptr inbounds nuw %struct.AVProbeData, ptr %18, i32 0, i32 1
  %20 = load ptr, ptr %19, align 8, !tbaa !9
  %21 = getelementptr inbounds i8, ptr %20, i64 4
  %22 = load i16, ptr %21, align 1, !tbaa !13
  %23 = zext i16 %22 to i32
  %24 = icmp eq i32 %23, 65279
  br i1 %24, label %25, label %26

25:                                               ; preds = %17, %9
  store i32 66, ptr %2, align 4
  br label %27

26:                                               ; preds = %17, %1
  store i32 0, ptr %2, align 4
  br label %27

27:                                               ; preds = %26, %25
  %28 = load i32, ptr %2, align 4
  ret i32 %28
}