; Function Attrs: mustprogress nofree norecurse nosync nounwind willreturn memory(read, inaccessiblemem: none) uwtable
define internal range(i32 0, 67) i32 @probe(ptr noundef readonly captures(none) %0) #0 {
  %2 = getelementptr inbounds nuw i8, ptr %0, i64 8
  %3 = load ptr, ptr %2, align 8, !tbaa !4
  %4 = load i32, ptr %3, align 1, !tbaa !11
  %5 = icmp eq i32 %4, 1297371986
  br i1 %5, label %6, label %10

6:                                                ; preds = %1
  %7 = getelementptr inbounds nuw i8, ptr %3, i64 4
  %8 = load i16, ptr %7, align 1, !tbaa !11
  %switch.selectcmp.case1 = icmp eq i16 %8, -2
  %switch.selectcmp.case2 = icmp eq i16 %8, -257
  %switch.selectcmp = or i1 %switch.selectcmp.case1, %switch.selectcmp.case2
  %9 = select i1 %switch.selectcmp, i32 66, i32 0
  br label %10

10:                                               ; preds = %1, %6
  %.0 = phi i32 [ %9, %6 ], [ 0, %1 ]
  ret i32 %.0
}